target datalayout = "e-m:e-p270:32:32-p271:32:32-p272:64:64-i64:64-i128:128-f80:128-n8:16:32:64-S128"
target triple = "x86_64-pc-linux-gnu"

%struct.ScanKeyData = type { i32, i16, i16, i32, i32, %struct.FmgrInfo, i64 }
%struct.FmgrInfo = type { ptr, i32, i16, i8, i8, i8, ptr, ptr, ptr }
%struct.VariableSetStmt = type { i32, i32, ptr, ptr, i8, i8, i32 }
%struct.RelationData = type { %struct.RelFileLocator, ptr, i32, i32, i8, i8, i8, i8, i8, i32, i32, i32, i32, ptr, ptr, i32, %struct.LockInfoData, ptr, ptr, ptr, ptr, ptr, i8, ptr, ptr, ptr, ptr, ptr, ptr, i32, ptr, i8, ptr, ptr, i32, i8, i32, ptr, i8, ptr, ptr, ptr, ptr, ptr, ptr, ptr, i32, ptr, ptr, ptr, ptr, ptr, ptr, ptr, ptr, ptr, ptr, ptr, ptr, ptr, ptr, ptr, ptr, ptr, ptr, ptr, i32, i8, ptr }
%struct.RelFileLocator = type { i32, i32, i32 }
%struct.LockInfoData = type { %struct.LockRelId }
%struct.LockRelId = type { i32, i32 }
%struct.HeapTupleData = type { i32, %struct.ItemPointerData, i32, ptr }
%struct.ItemPointerData = type { %struct.BlockIdData, i16 }
%struct.BlockIdData = type { i16, i16 }

@object_access_hook = external global ptr, align 8

; Function Attrs: inlinehint nounwind uwtable
define internal i64 @PointerGetDatum(ptr noundef %0) #3 {
  %2 = alloca ptr, align 8
  store ptr %0, ptr %2, align 8
  %3 = load ptr, ptr %2, align 8
  %4 = ptrtoint ptr %3 to i64
  ret i64 %4
}

; Function Attrs: inlinehint nounwind uwtable
define internal ptr @DatumGetPointer(i64 noundef %0) #3 {
  %2 = alloca i64, align 8
  store i64 %0, ptr %2, align 8
  %3 = load i64, ptr %2, align 8
  %4 = inttoptr i64 %3 to ptr
  ret ptr %4
}

; Function Attrs: inlinehint nounwind uwtable
define internal i64 @ObjectIdGetDatum(i32 noundef %0) #3 {
  %2 = alloca i32, align 4
  store i32 %0, ptr %2, align 4
  %3 = load i32, ptr %2, align 4
  %4 = zext i32 %3 to i64
  ret i64 %4
}

; Function Attrs: nounwind uwtable
define dso_local void @AlterSetting(i32 noundef %0, i32 noundef %1, ptr noundef %2) #0 {
  %4 = alloca i32, align 4
  %5 = alloca i32, align 4
  %6 = alloca ptr, align 8
  %7 = alloca ptr, align 8
  %8 = alloca ptr, align 8
  %9 = alloca ptr, align 8
  %10 = alloca [2 x %struct.ScanKeyData], align 16
  %11 = alloca ptr, align 8
  %12 = alloca ptr, align 8
  %13 = alloca i64, align 8
  %14 = alloca i8, align 1
  %15 = alloca [3 x i64], align 16
  %16 = alloca [3 x i8], align 1
  %17 = alloca [3 x i8], align 1
  %18 = alloca ptr, align 8
  %19 = alloca [3 x i64], align 16
  %20 = alloca [3 x i8], align 1
  %21 = alloca [3 x i8], align 1
  %22 = alloca ptr, align 8
  %23 = alloca i64, align 8
  %24 = alloca i8, align 1
  %25 = alloca ptr, align 8
  %26 = alloca ptr, align 8
  %27 = alloca [3 x i64], align 16
  %28 = alloca [3 x i8], align 1
  %29 = alloca ptr, align 8
  store i32 %0, ptr %4, align 4
  store i32 %1, ptr %5, align 4
  store ptr %2, ptr %6, align 8
  call void @llvm.lifetime.start.p0(i64 8, ptr %7) #6
  call void @llvm.lifetime.start.p0(i64 8, ptr %8) #6
  call void @llvm.lifetime.start.p0(i64 8, ptr %9) #6
  call void @llvm.lifetime.start.p0(i64 144, ptr %10) #6
  call void @llvm.lifetime.start.p0(i64 8, ptr %11) #6
  %30 = load ptr, ptr %6, align 8
  %31 = call ptr @ExtractSetVariableArgs(ptr noundef %30)
  store ptr %31, ptr %7, align 8
  %32 = call ptr @table_open(i32 noundef 2964, i32 noundef 3)
  store ptr %32, ptr %9, align 8
  %33 = getelementptr inbounds [2 x %struct.ScanKeyData], ptr %10, i64 0, i64 0
  %34 = load i32, ptr %4, align 4
  %35 = call i64 @ObjectIdGetDatum(i32 noundef %34)
  call void @ScanKeyInit(ptr noundef %33, i16 noundef signext 1, i16 noundef zeroext 3, i32 noundef 184, i64 noundef %35)
  %36 = getelementptr inbounds [2 x %struct.ScanKeyData], ptr %10, i64 0, i64 1
  %37 = load i32, ptr %5, align 4
  %38 = call i64 @ObjectIdGetDatum(i32 noundef %37)
  call void @ScanKeyInit(ptr noundef %36, i16 noundef signext 2, i16 noundef zeroext 3, i32 noundef 184, i64 noundef %38)
  %39 = load ptr, ptr %9, align 8
  %40 = getelementptr inbounds [2 x %struct.ScanKeyData], ptr %10, i64 0, i64 0
  %41 = call ptr @systable_beginscan(ptr noundef %39, i32 noundef 2965, i1 noundef zeroext true, ptr noundef null, i32 noundef 2, ptr noundef %40)
  store ptr %41, ptr %11, align 8
  %42 = load ptr, ptr %11, align 8
  %43 = call ptr @systable_getnext(ptr noundef %42)
  store ptr %43, ptr %8, align 8
  %44 = load ptr, ptr %6, align 8
  %45 = getelementptr inbounds nuw %struct.VariableSetStmt, ptr %44, i32 0, i32 1
  %46 = load i32, ptr %45, align 4
  %47 = icmp eq i32 %46, 5
  br i1 %47, label %48, label %92

48:                                               ; preds = %3
  %49 = load ptr, ptr %8, align 8
  %50 = icmp ne ptr %49, null
  br i1 %50, label %51, label %91

51:                                               ; preds = %48
  call void @llvm.lifetime.start.p0(i64 8, ptr %12) #6
  store ptr null, ptr %12, align 8
  call void @llvm.lifetime.start.p0(i64 8, ptr %13) #6
  call void @llvm.lifetime.start.p0(i64 1, ptr %14) #6
  %52 = load ptr, ptr %8, align 8
  %53 = load ptr, ptr %9, align 8
  %54 = getelementptr inbounds nuw %struct.RelationData, ptr %53, i32 0, i32 14
  %55 = load ptr, ptr %54, align 8
  %56 = call i64 @heap_getattr(ptr noundef %52, i32 noundef 3, ptr noundef %55, ptr noundef %14)
  store i64 %56, ptr %13, align 8
  %57 = load i8, ptr %14, align 1, !range !4, !noundef !5
  %58 = trunc i8 %57 to i1
  br i1 %58, label %64, label %59

59:                                               ; preds = %51
  %60 = load i64, ptr %13, align 8
  %61 = call ptr @DatumGetPointer(i64 noundef %60)
  %62 = call ptr @pg_detoast_datum(ptr noundef %61)
  %63 = call ptr @GUCArrayReset(ptr noundef %62)
  store ptr %63, ptr %12, align 8
  br label %64

64:                                               ; preds = %59, %51
  %65 = load ptr, ptr %12, align 8
  %66 = icmp ne ptr %65, null
  br i1 %66, label %67, label %86

67:                                               ; preds = %64
  call void @llvm.lifetime.start.p0(i64 24, ptr %15) #6
  call void @llvm.lifetime.start.p0(i64 3, ptr %16) #6
  call void @llvm.lifetime.start.p0(i64 3, ptr %17) #6
  call void @llvm.lifetime.start.p0(i64 8, ptr %18) #6
  %68 = getelementptr inbounds [3 x i8], ptr %17, i64 0, i64 0
  call void @llvm.memset.p0.i64(ptr align 1 %68, i8 0, i64 3, i1 false)
  %69 = load ptr, ptr %12, align 8
  %70 = call i64 @PointerGetDatum(ptr noundef %69)
  %71 = getelementptr inbounds [3 x i64], ptr %15, i64 0, i64 2
  store i64 %70, ptr %71, align 16
  %72 = getelementptr inbounds [3 x i8], ptr %17, i64 0, i64 2
  store i8 1, ptr %72, align 1
  %73 = getelementptr inbounds [3 x i8], ptr %16, i64 0, i64 2
  store i8 0, ptr %73, align 1
  %74 = load ptr, ptr %8, align 8
  %75 = load ptr, ptr %9, align 8
  %76 = getelementptr inbounds nuw %struct.RelationData, ptr %75, i32 0, i32 14
  %77 = load ptr, ptr %76, align 8
  %78 = getelementptr inbounds [3 x i64], ptr %15, i64 0, i64 0
  %79 = getelementptr inbounds [3 x i8], ptr %16, i64 0, i64 0
  %80 = getelementptr inbounds [3 x i8], ptr %17, i64 0, i64 0
  %81 = call ptr @heap_modify_tuple(ptr noundef %74, ptr noundef %77, ptr noundef %78, ptr noundef %79, ptr noundef %80)
  store ptr %81, ptr %18, align 8
  %82 = load ptr, ptr %9, align 8
  %83 = load ptr, ptr %8, align 8
  %84 = getelementptr inbounds nuw %struct.HeapTupleData, ptr %83, i32 0, i32 1
  %85 = load ptr, ptr %18, align 8
  call void @CatalogTupleUpdate(ptr noundef %82, ptr noundef %84, ptr noundef %85)
  call void @llvm.lifetime.end.p0(i64 8, ptr %18) #6
  call void @llvm.lifetime.end.p0(i64 3, ptr %17) #6
  call void @llvm.lifetime.end.p0(i64 3, ptr %16) #6
  call void @llvm.lifetime.end.p0(i64 24, ptr %15) #6
  br label %90

86:                                               ; preds = %64
  %87 = load ptr, ptr %9, align 8
  %88 = load ptr, ptr %8, align 8
  %89 = getelementptr inbounds nuw %struct.HeapTupleData, ptr %88, i32 0, i32 1
  call void @CatalogTupleDelete(ptr noundef %87, ptr noundef %89)
  br label %90

90:                                               ; preds = %86, %67
  call void @llvm.lifetime.end.p0(i64 1, ptr %14) #6
  call void @llvm.lifetime.end.p0(i64 8, ptr %13) #6
  call void @llvm.lifetime.end.p0(i64 8, ptr %12) #6
  br label %91

91:                                               ; preds = %90, %48
  br label %181

92:                                               ; preds = %3
  %93 = load ptr, ptr %8, align 8
  %94 = icmp ne ptr %93, null
  br i1 %94, label %95, label %152

95:                                               ; preds = %92
  call void @llvm.lifetime.start.p0(i64 24, ptr %19) #6
  call void @llvm.lifetime.start.p0(i64 3, ptr %20) #6
  call void @llvm.lifetime.start.p0(i64 3, ptr %21) #6
  call void @llvm.lifetime.start.p0(i64 8, ptr %22) #6
  call void @llvm.lifetime.start.p0(i64 8, ptr %23) #6
  call void @llvm.lifetime.start.p0(i64 1, ptr %24) #6
  call void @llvm.lifetime.start.p0(i64 8, ptr %25) #6
  %96 = getelementptr inbounds [3 x i8], ptr %21, i64 0, i64 0
  call void @llvm.memset.p0.i64(ptr align 1 %96, i8 0, i64 3, i1 false)
  %97 = getelementptr inbounds [3 x i8], ptr %21, i64 0, i64 2
  store i8 1, ptr %97, align 1
  %98 = getelementptr inbounds [3 x i8], ptr %20, i64 0, i64 2
  store i8 0, ptr %98, align 1
  %99 = load ptr, ptr %8, align 8
  %100 = load ptr, ptr %9, align 8
  %101 = getelementptr inbounds nuw %struct.RelationData, ptr %100, i32 0, i32 14
  %102 = load ptr, ptr %101, align 8
  %103 = call i64 @heap_getattr(ptr noundef %99, i32 noundef 3, ptr noundef %102, ptr noundef %24)
  store i64 %103, ptr %23, align 8
  %104 = load i8, ptr %24, align 1, !range !4, !noundef !5
  %105 = trunc i8 %104 to i1
  br i1 %105, label %106, label %107

106:                                              ; preds = %95
  br label %111

107:                                              ; preds = %95
  %108 = load i64, ptr %23, align 8
  %109 = call ptr @DatumGetPointer(i64 noundef %108)
  %110 = call ptr @pg_detoast_datum(ptr noundef %109)
  br label %111

111:                                              ; preds = %107, %106
  %112 = phi ptr [ null, %106 ], [ %110, %107 ]
  store ptr %112, ptr %25, align 8
  %113 = load ptr, ptr %7, align 8
  %114 = icmp ne ptr %113, null
  br i1 %114, label %115, label %122

115:                                              ; preds = %111
  %116 = load ptr, ptr %25, align 8
  %117 = load ptr, ptr %6, align 8
  %118 = getelementptr inbounds nuw %struct.VariableSetStmt, ptr %117, i32 0, i32 2
  %119 = load ptr, ptr %118, align 8
  %120 = load ptr, ptr %7, align 8
  %121 = call ptr @GUCArrayAdd(ptr noundef %116, ptr noundef %119, ptr noundef %120)
  store ptr %121, ptr %25, align 8
  br label %128

122:                                              ; preds = %111
  %123 = load ptr, ptr %25, align 8
  %124 = load ptr, ptr %6, align 8
  %125 = getelementptr inbounds nuw %struct.VariableSetStmt, ptr %124, i32 0, i32 2
  %126 = load ptr, ptr %125, align 8
  %127 = call ptr @GUCArrayDelete(ptr noundef %123, ptr noundef %126)
  store ptr %127, ptr %25, align 8
  br label %128

128:                                              ; preds = %122, %115
  %129 = load ptr, ptr %25, align 8
  %130 = icmp ne ptr %129, null
  br i1 %130, label %131, label %147

131:                                              ; preds = %128
  %132 = load ptr, ptr %25, align 8
  %133 = call i64 @PointerGetDatum(ptr noundef %132)
  %134 = getelementptr inbounds [3 x i64], ptr %19, i64 0, i64 2
  store i64 %133, ptr %134, align 16
  %135 = load ptr, ptr %8, align 8
  %136 = load ptr, ptr %9, align 8
  %137 = getelementptr inbounds nuw %struct.RelationData, ptr %136, i32 0, i32 14
  %138 = load ptr, ptr %137, align 8
  %139 = getelementptr inbounds [3 x i64], ptr %19, i64 0, i64 0
  %140 = getelementptr inbounds [3 x i8], ptr %20, i64 0, i64 0
  %141 = getelementptr inbounds [3 x i8], ptr %21, i64 0, i64 0
  %142 = call ptr @heap_modify_tuple(ptr noundef %135, ptr noundef %138, ptr noundef %139, ptr noundef %140, ptr noundef %141)
  store ptr %142, ptr %22, align 8
  %143 = load ptr, ptr %9, align 8
  %144 = load ptr, ptr %8, align 8
  %145 = getelementptr inbounds nuw %struct.HeapTupleData, ptr %144, i32 0, i32 1
  %146 = load ptr, ptr %22, align 8
  call void @CatalogTupleUpdate(ptr noundef %143, ptr noundef %145, ptr noundef %146)
  br label %151

147:                                              ; preds = %128
  %148 = load ptr, ptr %9, align 8
  %149 = load ptr, ptr %8, align 8
  %150 = getelementptr inbounds nuw %struct.HeapTupleData, ptr %149, i32 0, i32 1
  call void @CatalogTupleDelete(ptr noundef %148, ptr noundef %150)
  br label %151

151:                                              ; preds = %147, %131
  call void @llvm.lifetime.end.p0(i64 8, ptr %25) #6
  call void @llvm.lifetime.end.p0(i64 1, ptr %24) #6
  call void @llvm.lifetime.end.p0(i64 8, ptr %23) #6
  call void @llvm.lifetime.end.p0(i64 8, ptr %22) #6
  call void @llvm.lifetime.end.p0(i64 3, ptr %21) #6
  call void @llvm.lifetime.end.p0(i64 3, ptr %20) #6
  call void @llvm.lifetime.end.p0(i64 24, ptr %19) #6
  br label %180

152:                                              ; preds = %92
  %153 = load ptr, ptr %7, align 8
  %154 = icmp ne ptr %153, null
  br i1 %154, label %155, label %179

155:                                              ; preds = %152
  call void @llvm.lifetime.start.p0(i64 8, ptr %26) #6
  call void @llvm.lifetime.start.p0(i64 24, ptr %27) #6
  call void @llvm.lifetime.start.p0(i64 3, ptr %28) #6
  call void @llvm.lifetime.start.p0(i64 8, ptr %29) #6
  %156 = getelementptr inbounds [3 x i8], ptr %28, i64 0, i64 0
  call void @llvm.memset.p0.i64(ptr align 1 %156, i8 0, i64 3, i1 false)
  %157 = load ptr, ptr %6, align 8
  %158 = getelementptr inbounds nuw %struct.VariableSetStmt, ptr %157, i32 0, i32 2
  %159 = load ptr, ptr %158, align 8
  %160 = load ptr, ptr %7, align 8
  %161 = call ptr @GUCArrayAdd(ptr noundef null, ptr noundef %159, ptr noundef %160)
  store ptr %161, ptr %29, align 8
  %162 = load i32, ptr %4, align 4
  %163 = call i64 @ObjectIdGetDatum(i32 noundef %162)
  %164 = getelementptr inbounds [3 x i64], ptr %27, i64 0, i64 0
  store i64 %163, ptr %164, align 16
  %165 = load i32, ptr %5, align 4
  %166 = call i64 @ObjectIdGetDatum(i32 noundef %165)
  %167 = getelementptr inbounds [3 x i64], ptr %27, i64 0, i64 1
  store i64 %166, ptr %167, align 8
  %168 = load ptr, ptr %29, align 8
  %169 = call i64 @PointerGetDatum(ptr noundef %168)
  %170 = getelementptr inbounds [3 x i64], ptr %27, i64 0, i64 2
  store i64 %169, ptr %170, align 16
  %171 = load ptr, ptr %9, align 8
  %172 = getelementptr inbounds nuw %struct.RelationData, ptr %171, i32 0, i32 14
  %173 = load ptr, ptr %172, align 8
  %174 = getelementptr inbounds [3 x i64], ptr %27, i64 0, i64 0
  %175 = getelementptr inbounds [3 x i8], ptr %28, i64 0, i64 0
  %176 = call ptr @heap_form_tuple(ptr noundef %173, ptr noundef %174, ptr noundef %175)
  store ptr %176, ptr %26, align 8
  %177 = load ptr, ptr %9, align 8
  %178 = load ptr, ptr %26, align 8
  call void @CatalogTupleInsert(ptr noundef %177, ptr noundef %178)
  call void @llvm.lifetime.end.p0(i64 8, ptr %29) #6
  call void @llvm.lifetime.end.p0(i64 3, ptr %28) #6
  call void @llvm.lifetime.end.p0(i64 24, ptr %27) #6
  call void @llvm.lifetime.end.p0(i64 8, ptr %26) #6
  br label %179

179:                                              ; preds = %155, %152
  br label %180

180:                                              ; preds = %179, %151
  br label %181

181:                                              ; preds = %180, %91
  br label %182

182:                                              ; preds = %181
  %183 = load ptr, ptr @object_access_hook, align 8
  %184 = icmp ne ptr %183, null
  br i1 %184, label %185, label %188

185:                                              ; preds = %182
  %186 = load i32, ptr %4, align 4
  %187 = load i32, ptr %5, align 4
  call void @RunObjectPostAlterHook(i32 noundef 2964, i32 noundef %186, i32 noundef 0, i32 noundef %187, i1 noundef zeroext false)
  br label %188

188:                                              ; preds = %185, %182
  br label %189

189:                                              ; preds = %188
  br label %190

190:                                              ; preds = %189
  %191 = load ptr, ptr %11, align 8
  call void @systable_endscan(ptr noundef %191)
  %192 = load ptr, ptr %9, align 8
  call void @table_close(ptr noundef %192, i32 noundef 0)
  call void @llvm.lifetime.end.p0(i64 8, ptr %11) #6
  call void @llvm.lifetime.end.p0(i64 144, ptr %10) #6
  call void @llvm.lifetime.end.p0(i64 8, ptr %9) #6
  call void @llvm.lifetime.end.p0(i64 8, ptr %8) #6
  call void @llvm.lifetime.end.p0(i64 8, ptr %7) #6
  ret void
}