; Function Attrs: nounwind uwtable
define dso_local void @AlterSetting(i32 noundef %0, i32 noundef %1, ptr noundef %2) local_unnamed_addr #0 {
  %4 = alloca [2 x %struct.ScanKeyData], align 16
  %5 = alloca i8, align 1
  %6 = alloca [3 x i64], align 16
  %7 = alloca [3 x i8], align 1
  %8 = alloca [3 x i8], align 2
  %9 = alloca [3 x i64], align 16
  %10 = alloca [3 x i8], align 1
  %11 = alloca [3 x i8], align 2
  %12 = alloca i8, align 1
  %13 = alloca [3 x i64], align 16
  %14 = alloca [3 x i8], align 1
  call void @llvm.lifetime.start.p0(i64 144, ptr nonnull %4) #7
  %15 = tail call ptr @ExtractSetVariableArgs(ptr noundef %2) #7
  %16 = tail call ptr @table_open(i32 noundef 2964, i32 noundef 3) #7
  %17 = zext i32 %0 to i64
  call void @ScanKeyInit(ptr noundef nonnull %4, i16 noundef signext 1, i16 noundef zeroext 3, i32 noundef 184, i64 noundef %17) #7
  %18 = getelementptr inbounds nuw i8, ptr %4, i64 72
  %19 = zext i32 %1 to i64
  call void @ScanKeyInit(ptr noundef nonnull %18, i16 noundef signext 2, i16 noundef zeroext 3, i32 noundef 184, i64 noundef %19) #7
  %20 = call ptr @systable_beginscan(ptr noundef %16, i32 noundef 2965, i1 noundef zeroext true, ptr noundef null, i32 noundef 2, ptr noundef nonnull %4) #7
  %21 = call ptr @systable_getnext(ptr noundef %20) #7
  %22 = getelementptr inbounds nuw i8, ptr %2, i64 4
  %23 = load i32, ptr %22, align 4
  %24 = icmp eq i32 %23, 5
  %.not57 = icmp eq ptr %21, null
  br i1 %24, label %25, label %46

25:                                               ; preds = %3
  br i1 %.not57, label %87, label %26

26:                                               ; preds = %25
  call void @llvm.lifetime.start.p0(i64 1, ptr nonnull %5) #7
  %27 = getelementptr inbounds nuw i8, ptr %16, i64 64
  %28 = load ptr, ptr %27, align 8
  %29 = call fastcc i64 @heap_getattr(ptr noundef %21, ptr noundef %28, ptr noundef %5)
  %30 = load i8, ptr %5, align 1, !range !4, !noundef !5
  %31 = trunc nuw i8 %30 to i1
  br i1 %31, label %.thread, label %32

32:                                               ; preds = %26
  %33 = inttoptr i64 %29 to ptr
  %34 = call ptr @pg_detoast_datum(ptr noundef %33) #7
  %35 = call ptr @GUCArrayReset(ptr noundef %34) #7
  %.not58 = icmp eq ptr %35, null
  br i1 %.not58, label %.thread, label %36

36:                                               ; preds = %32
  call void @llvm.lifetime.start.p0(i64 24, ptr nonnull %6) #7
  call void @llvm.lifetime.start.p0(i64 3, ptr nonnull %7) #7
  call void @llvm.lifetime.start.p0(i64 3, ptr nonnull %8) #7
  store i16 0, ptr %8, align 2
  %37 = ptrtoint ptr %35 to i64
  %38 = getelementptr inbounds nuw i8, ptr %6, i64 16
  store i64 %37, ptr %38, align 16
  %39 = getelementptr inbounds nuw i8, ptr %8, i64 2
  store i8 1, ptr %39, align 2
  %40 = getelementptr inbounds nuw i8, ptr %7, i64 2
  store i8 0, ptr %40, align 1
  %41 = load ptr, ptr %27, align 8
  %42 = call ptr @heap_modify_tuple(ptr noundef nonnull %21, ptr noundef %41, ptr noundef nonnull %6, ptr noundef nonnull %7, ptr noundef nonnull %8) #7
  %43 = getelementptr inbounds nuw i8, ptr %21, i64 4
  call void @CatalogTupleUpdate(ptr noundef nonnull %16, ptr noundef nonnull %43, ptr noundef %42) #7
  call void @llvm.lifetime.end.p0(i64 3, ptr nonnull %8) #7
  call void @llvm.lifetime.end.p0(i64 3, ptr nonnull %7) #7
  call void @llvm.lifetime.end.p0(i64 24, ptr nonnull %6) #7
  br label %45

.thread:                                          ; preds = %26, %32
  %44 = getelementptr inbounds nuw i8, ptr %21, i64 4
  call void @CatalogTupleDelete(ptr noundef nonnull %16, ptr noundef nonnull %44) #7
  br label %45

45:                                               ; preds = %.thread, %36
  call void @llvm.lifetime.end.p0(i64 1, ptr nonnull %5) #7
  br label %87

46:                                               ; preds = %3
  br i1 %.not57, label %76, label %47

47:                                               ; preds = %46
  call void @llvm.lifetime.start.p0(i64 24, ptr nonnull %9) #7
  call void @llvm.lifetime.start.p0(i64 3, ptr nonnull %10) #7
  call void @llvm.lifetime.start.p0(i64 3, ptr nonnull %11) #7
  call void @llvm.lifetime.start.p0(i64 1, ptr nonnull %12) #7
  store i16 0, ptr %11, align 2
  %48 = getelementptr inbounds nuw i8, ptr %11, i64 2
  store i8 1, ptr %48, align 2
  %49 = getelementptr inbounds nuw i8, ptr %10, i64 2
  store i8 0, ptr %49, align 1
  %50 = getelementptr inbounds nuw i8, ptr %16, i64 64
  %51 = load ptr, ptr %50, align 8
  %52 = call fastcc i64 @heap_getattr(ptr noundef %21, ptr noundef %51, ptr noundef %12)
  %53 = load i8, ptr %12, align 1, !range !4, !noundef !5
  %54 = trunc nuw i8 %53 to i1
  br i1 %54, label %58, label %55

55:                                               ; preds = %47
  %56 = inttoptr i64 %52 to ptr
  %57 = call ptr @pg_detoast_datum(ptr noundef %56) #7
  br label %58

58:                                               ; preds = %47, %55
  %59 = phi ptr [ %57, %55 ], [ null, %47 ]
  %.not55 = icmp eq ptr %15, null
  %60 = getelementptr inbounds nuw i8, ptr %2, i64 8
  %61 = load ptr, ptr %60, align 8
  br i1 %.not55, label %64, label %62

62:                                               ; preds = %58
  %63 = call ptr @GUCArrayAdd(ptr noundef %59, ptr noundef %61, ptr noundef nonnull %15) #7
  br label %66

64:                                               ; preds = %58
  %65 = call ptr @GUCArrayDelete(ptr noundef %59, ptr noundef %61) #7
  br label %66

66:                                               ; preds = %64, %62
  %.050 = phi ptr [ %63, %62 ], [ %65, %64 ]
  %.not56 = icmp eq ptr %.050, null
  br i1 %.not56, label %73, label %67

67:                                               ; preds = %66
  %68 = ptrtoint ptr %.050 to i64
  %69 = getelementptr inbounds nuw i8, ptr %9, i64 16
  store i64 %68, ptr %69, align 16
  %70 = load ptr, ptr %50, align 8
  %71 = call ptr @heap_modify_tuple(ptr noundef nonnull %21, ptr noundef %70, ptr noundef nonnull %9, ptr noundef nonnull %10, ptr noundef nonnull %11) #7
  %72 = getelementptr inbounds nuw i8, ptr %21, i64 4
  call void @CatalogTupleUpdate(ptr noundef nonnull %16, ptr noundef nonnull %72, ptr noundef %71) #7
  br label %75

73:                                               ; preds = %66
  %74 = getelementptr inbounds nuw i8, ptr %21, i64 4
  call void @CatalogTupleDelete(ptr noundef nonnull %16, ptr noundef nonnull %74) #7
  br label %75

75:                                               ; preds = %73, %67
  call void @llvm.lifetime.end.p0(i64 1, ptr nonnull %12) #7
  call void @llvm.lifetime.end.p0(i64 3, ptr nonnull %11) #7
  call void @llvm.lifetime.end.p0(i64 3, ptr nonnull %10) #7
  call void @llvm.lifetime.end.p0(i64 24, ptr nonnull %9) #7
  br label %87

76:                                               ; preds = %46
  %.not54 = icmp eq ptr %15, null
  br i1 %.not54, label %87, label %77

77:                                               ; preds = %76
  call void @llvm.lifetime.start.p0(i64 24, ptr nonnull %13) #7
  call void @llvm.lifetime.start.p0(i64 3, ptr nonnull %14) #7
  call void @llvm.memset.p0.i64(ptr noundef nonnull align 1 dereferenceable(3) %14, i8 0, i64 3, i1 false)
  %78 = getelementptr inbounds nuw i8, ptr %2, i64 8
  %79 = load ptr, ptr %78, align 8
  %80 = call ptr @GUCArrayAdd(ptr noundef null, ptr noundef %79, ptr noundef nonnull %15) #7
  store i64 %17, ptr %13, align 16
  %81 = getelementptr inbounds nuw i8, ptr %13, i64 8
  store i64 %19, ptr %81, align 8
  %82 = ptrtoint ptr %80 to i64
  %83 = getelementptr inbounds nuw i8, ptr %13, i64 16
  store i64 %82, ptr %83, align 16
  %84 = getelementptr inbounds nuw i8, ptr %16, i64 64
  %85 = load ptr, ptr %84, align 8
  %86 = call ptr @heap_form_tuple(ptr noundef %85, ptr noundef nonnull %13, ptr noundef nonnull %14) #7
  call void @CatalogTupleInsert(ptr noundef %16, ptr noundef %86) #7
  call void @llvm.lifetime.end.p0(i64 3, ptr nonnull %14) #7
  call void @llvm.lifetime.end.p0(i64 24, ptr nonnull %13) #7
  br label %87

87:                                               ; preds = %45, %25, %76, %77, %75
  %88 = load ptr, ptr @object_access_hook, align 8
  %.not59 = icmp eq ptr %88, null
  br i1 %.not59, label %90, label %89

89:                                               ; preds = %87
  call void @RunObjectPostAlterHook(i32 noundef 2964, i32 noundef %0, i32 noundef 0, i32 noundef %1, i1 noundef zeroext false) #7
  br label %90

90:                                               ; preds = %89, %87
  call void @systable_endscan(ptr noundef %20) #7
  call void @table_close(ptr noundef %16, i32 noundef 0) #7
  call void @llvm.lifetime.end.p0(i64 144, ptr nonnull %4) #7
  ret void
}